target datalayout = "e-m:e-p270:32:32-p271:32:32-p272:64:64-i64:64-i128:128-f80:128-n8:16:32:64-S128"
target triple = "x86_64-pc-linux-gnu"

%"struct.faiss::IndexHNSW" = type <{ %"struct.faiss::Index.base", [4 x i8], %"struct.faiss::HNSW", i8, [7 x i8], ptr, i8, i8, [6 x i8] }>
%"struct.faiss::Index.base" = type <{ ptr, i32, [4 x i8], i64, i8, i8, [2 x i8], i32, float }>
%"struct.faiss::HNSW" = type <{ %"class.std::vector", %"class.std::vector.0", %"class.std::vector.0", %"class.std::vector.5", %"class.std::vector.0", i32, [4 x i8], %"struct.faiss::RandomGenerator", i32, i32, i32, i8, i8, [2 x i8] }>
%"class.std::vector" = type { %"struct.std::_Vector_base" }
%"struct.std::_Vector_base" = type { %"struct.std::_Vector_base<double, std::allocator<double>>::_Vector_impl" }
%"struct.std::_Vector_base<double, std::allocator<double>>::_Vector_impl" = type { %"struct.std::_Vector_base<double, std::allocator<double>>::_Vector_impl_data" }
%"struct.std::_Vector_base<double, std::allocator<double>>::_Vector_impl_data" = type { ptr, ptr, ptr }
%"class.std::vector.5" = type { %"struct.std::_Vector_base.6" }
%"struct.std::_Vector_base.6" = type { %"struct.std::_Vector_base<unsigned long, std::allocator<unsigned long>>::_Vector_impl" }
%"struct.std::_Vector_base<unsigned long, std::allocator<unsigned long>>::_Vector_impl" = type { %"struct.std::_Vector_base<unsigned long, std::allocator<unsigned long>>::_Vector_impl_data" }
%"struct.std::_Vector_base<unsigned long, std::allocator<unsigned long>>::_Vector_impl_data" = type { ptr, ptr, ptr }
%"class.std::vector.0" = type { %"struct.std::_Vector_base.1" }
%"struct.std::_Vector_base.1" = type { %"struct.std::_Vector_base<int, std::allocator<int>>::_Vector_impl" }
%"struct.std::_Vector_base<int, std::allocator<int>>::_Vector_impl" = type { %"struct.std::_Vector_base<int, std::allocator<int>>::_Vector_impl_data" }
%"struct.std::_Vector_base<int, std::allocator<int>>::_Vector_impl_data" = type { ptr, ptr, ptr }
%"struct.faiss::RandomGenerator" = type { %"class.std::mersenne_twister_engine" }
%"class.std::mersenne_twister_engine" = type { [624 x i64], i64 }
%"struct.faiss::Index" = type <{ ptr, i32, [4 x i8], i64, i8, i8, [2 x i8], i32, float, [4 x i8] }>

; Function Attrs: mustprogress nounwind uwtable
define linkonce_odr void @_ZN5faiss5IndexC2ElNS_10MetricTypeE(ptr noundef nonnull align 8 dereferenceable(36) %0, i64 noundef %1, i32 noundef %2) unnamed_addr #0 comdat align 2 {
  %4 = alloca ptr, align 8
  %5 = alloca i64, align 8
  %6 = alloca i32, align 4
  store ptr %0, ptr %4, align 8, !tbaa !88
  store i64 %1, ptr %5, align 8, !tbaa !9
  store i32 %2, ptr %6, align 4, !tbaa !85
  %7 = load ptr, ptr %4, align 8
  store ptr getelementptr inbounds inrange(-16, 184) ({ [25 x ptr] }, ptr @_ZTVN5faiss5IndexE, i32 0, i32 0, i32 2), ptr %7, align 8, !tbaa !40
  %8 = getelementptr inbounds nuw %"struct.faiss::Index", ptr %7, i32 0, i32 1
  %9 = load i64, ptr %5, align 8, !tbaa !9
  %10 = trunc i64 %9 to i32
  store i32 %10, ptr %8, align 8, !tbaa !82
  %11 = getelementptr inbounds nuw %"struct.faiss::Index", ptr %7, i32 0, i32 3
  store i64 0, ptr %11, align 8, !tbaa !45
  %12 = getelementptr inbounds nuw %"struct.faiss::Index", ptr %7, i32 0, i32 4
  store i8 0, ptr %12, align 8, !tbaa !46
  %13 = getelementptr inbounds nuw %"struct.faiss::Index", ptr %7, i32 0, i32 5
  store i8 1, ptr %13, align 1, !tbaa !42
  %14 = getelementptr inbounds nuw %"struct.faiss::Index", ptr %7, i32 0, i32 7
  %15 = load i32, ptr %6, align 4, !tbaa !85
  store i32 %15, ptr %14, align 4, !tbaa !50
  %16 = getelementptr inbounds nuw %"struct.faiss::Index", ptr %7, i32 0, i32 8
  store float 0.000000e+00, ptr %16, align 8, !tbaa !89
  ret void
}

; Function Attrs: mustprogress uwtable
define void @_ZN5faiss9IndexHNSWC2EiiNS_10MetricTypeE(ptr noundef nonnull align 8 dereferenceable(5202) %0, i32 noundef %1, i32 noundef %2, i32 noundef %3) unnamed_addr #1 align 2 personality ptr @__gxx_personality_v0 {
  %5 = alloca ptr, align 8
  %6 = alloca i32, align 4
  %7 = alloca i32, align 4
  %8 = alloca i32, align 4
  %9 = alloca ptr, align 8
  %10 = alloca i32, align 4
  store ptr %0, ptr %5, align 8, !tbaa !4
  store i32 %1, ptr %6, align 4, !tbaa !39
  store i32 %2, ptr %7, align 4, !tbaa !39
  store i32 %3, ptr %8, align 4, !tbaa !85
  %11 = load ptr, ptr %5, align 8
  %12 = load i32, ptr %6, align 4, !tbaa !39
  %13 = sext i32 %12 to i64
  %14 = load i32, ptr %8, align 4, !tbaa !85
  call void @_ZN5faiss5IndexC2ElNS_10MetricTypeE(ptr noundef nonnull align 8 dereferenceable(36) %11, i64 noundef %13, i32 noundef %14)
  store ptr getelementptr inbounds inrange(-16, 184) ({ [25 x ptr] }, ptr @_ZTVN5faiss9IndexHNSWE, i32 0, i32 0, i32 2), ptr %11, align 8, !tbaa !40
  %15 = getelementptr inbounds nuw %"struct.faiss::IndexHNSW", ptr %11, i32 0, i32 2
  %16 = load i32, ptr %7, align 4, !tbaa !39
  invoke void @_ZN5faiss4HNSWC1Ei(ptr noundef nonnull align 8 dereferenceable(5142) %15, i32 noundef %16)
          to label %17 unwind label %22

17:                                               ; preds = %4
  %18 = getelementptr inbounds nuw %"struct.faiss::IndexHNSW", ptr %11, i32 0, i32 3
  store i8 0, ptr %18, align 8, !tbaa !77
  %19 = getelementptr inbounds nuw %"struct.faiss::IndexHNSW", ptr %11, i32 0, i32 5
  store ptr null, ptr %19, align 8, !tbaa !13
  %20 = getelementptr inbounds nuw %"struct.faiss::IndexHNSW", ptr %11, i32 0, i32 6
  store i8 1, ptr %20, align 8, !tbaa !86
  %21 = getelementptr inbounds nuw %"struct.faiss::IndexHNSW", ptr %11, i32 0, i32 7
  store i8 0, ptr %21, align 1, !tbaa !87
  ret void

22:                                               ; preds = %4
  %23 = landingpad { ptr, i32 }
          cleanup
  %24 = extractvalue { ptr, i32 } %23, 0
  store ptr %24, ptr %9, align 8
  %25 = extractvalue { ptr, i32 } %23, 1
  store i32 %25, ptr %10, align 4
  call void @_ZN5faiss5IndexD2Ev(ptr noundef nonnull align 8 dereferenceable(36) %11) #6
  br label %26

26:                                               ; preds = %22
  %27 = load ptr, ptr %9, align 8
  %28 = load i32, ptr %10, align 4
  %29 = insertvalue { ptr, i32 } poison, ptr %27, 0
  %30 = insertvalue { ptr, i32 } %29, i32 %28, 1
  resume { ptr, i32 } %30
}