; Function Attrs: mustprogress uwtable
define void @_ZN5faiss9IndexHNSWC2EiiNS_10MetricTypeE(ptr noundef nonnull align 8 dereferenceable(5202) initializes((0, 12), (16, 26), (28, 36)) %0, i32 noundef %1, i32 noundef %2, i32 noundef %3) unnamed_addr #1 align 2 personality ptr @__gxx_personality_v0 {
  %5 = getelementptr inbounds nuw i8, ptr %0, i64 8
  store i32 %1, ptr %5, align 8, !tbaa !54
  %6 = getelementptr inbounds nuw i8, ptr %0, i64 16
  store i64 0, ptr %6, align 8, !tbaa !46
  %7 = getelementptr inbounds nuw i8, ptr %0, i64 24
  store i8 0, ptr %7, align 8, !tbaa !47
  %8 = getelementptr inbounds nuw i8, ptr %0, i64 25
  store i8 1, ptr %8, align 1, !tbaa !43
  %9 = getelementptr inbounds nuw i8, ptr %0, i64 28
  store i32 %3, ptr %9, align 4, !tbaa !98
  %10 = getelementptr inbounds nuw i8, ptr %0, i64 32
  store float 0.000000e+00, ptr %10, align 8, !tbaa !142
  store ptr getelementptr inbounds nuw inrange(-16, 184) (i8, ptr @_ZTVN5faiss9IndexHNSWE, i64 16), ptr %0, align 8, !tbaa !41
  %11 = getelementptr inbounds nuw i8, ptr %0, i64 40
  invoke void @_ZN5faiss4HNSWC1Ei(ptr noundef nonnull align 8 dereferenceable(5142) %11, i32 noundef %2)
          to label %12 unwind label %17

12:                                               ; preds = %4
  %13 = getelementptr inbounds nuw i8, ptr %0, i64 5184
  store i8 0, ptr %13, align 8, !tbaa !124
  %14 = getelementptr inbounds nuw i8, ptr %0, i64 5192
  store ptr null, ptr %14, align 8, !tbaa !4
  %15 = getelementptr inbounds nuw i8, ptr %0, i64 5200
  store i8 1, ptr %15, align 8, !tbaa !70
  %16 = getelementptr inbounds nuw i8, ptr %0, i64 5201
  store i8 0, ptr %16, align 1, !tbaa !143
  ret void

17:                                               ; preds = %4
  %18 = landingpad { ptr, i32 }
          cleanup
  tail call void @_ZN5faiss5IndexD2Ev(ptr noundef nonnull align 8 dereferenceable(36) %0) #13
  resume { ptr, i32 } %18
}